target datalayout = "e-m:e-p270:32:32-p271:32:32-p272:64:64-i64:64-i128:128-f80:128-n8:16:32:64-S128"
target triple = "x86_64-pc-linux-gnu"

%struct.ObjectAddress = type { i32, i32, i32 }
%struct.ObjectAddresses = type { ptr, ptr, i32, i32 }

; Function Attrs: nounwind uwtable
define internal void @add_object_address(i32 noundef %0, i32 noundef %1, i32 noundef %2, ptr noundef %3) #0 {
  %5 = alloca i32, align 4
  %6 = alloca i32, align 4
  %7 = alloca i32, align 4
  %8 = alloca ptr, align 8
  %9 = alloca ptr, align 8
  store i32 %0, ptr %5, align 4
  store i32 %1, ptr %6, align 4
  store i32 %2, ptr %7, align 4
  store ptr %3, ptr %8, align 8
  call void @llvm.lifetime.start.p0(i64 8, ptr %9) #8
  %10 = load ptr, ptr %8, align 8
  %11 = getelementptr inbounds nuw %struct.ObjectAddresses, ptr %10, i32 0, i32 2
  %12 = load i32, ptr %11, align 8
  %13 = load ptr, ptr %8, align 8
  %14 = getelementptr inbounds nuw %struct.ObjectAddresses, ptr %13, i32 0, i32 3
  %15 = load i32, ptr %14, align 4
  %16 = icmp sge i32 %12, %15
  br i1 %16, label %17, label %33

17:                                               ; preds = %4
  %18 = load ptr, ptr %8, align 8
  %19 = getelementptr inbounds nuw %struct.ObjectAddresses, ptr %18, i32 0, i32 3
  %20 = load i32, ptr %19, align 4
  %21 = mul i32 %20, 2
  store i32 %21, ptr %19, align 4
  %22 = load ptr, ptr %8, align 8
  %23 = getelementptr inbounds nuw %struct.ObjectAddresses, ptr %22, i32 0, i32 0
  %24 = load ptr, ptr %23, align 8
  %25 = load ptr, ptr %8, align 8
  %26 = getelementptr inbounds nuw %struct.ObjectAddresses, ptr %25, i32 0, i32 3
  %27 = load i32, ptr %26, align 4
  %28 = sext i32 %27 to i64
  %29 = mul i64 %28, 12
  %30 = call ptr @repalloc(ptr noundef %24, i64 noundef %29)
  %31 = load ptr, ptr %8, align 8
  %32 = getelementptr inbounds nuw %struct.ObjectAddresses, ptr %31, i32 0, i32 0
  store ptr %30, ptr %32, align 8
  br label %33

33:                                               ; preds = %17, %4
  %34 = load ptr, ptr %8, align 8
  %35 = getelementptr inbounds nuw %struct.ObjectAddresses, ptr %34, i32 0, i32 0
  %36 = load ptr, ptr %35, align 8
  %37 = load ptr, ptr %8, align 8
  %38 = getelementptr inbounds nuw %struct.ObjectAddresses, ptr %37, i32 0, i32 2
  %39 = load i32, ptr %38, align 8
  %40 = sext i32 %39 to i64
  %41 = getelementptr inbounds %struct.ObjectAddress, ptr %36, i64 %40
  store ptr %41, ptr %9, align 8
  %42 = load i32, ptr %5, align 4
  %43 = load ptr, ptr %9, align 8
  %44 = getelementptr inbounds nuw %struct.ObjectAddress, ptr %43, i32 0, i32 0
  store i32 %42, ptr %44, align 4
  %45 = load i32, ptr %6, align 4
  %46 = load ptr, ptr %9, align 8
  %47 = getelementptr inbounds nuw %struct.ObjectAddress, ptr %46, i32 0, i32 1
  store i32 %45, ptr %47, align 4
  %48 = load i32, ptr %7, align 4
  %49 = load ptr, ptr %9, align 8
  %50 = getelementptr inbounds nuw %struct.ObjectAddress, ptr %49, i32 0, i32 2
  store i32 %48, ptr %50, align 4
  %51 = load ptr, ptr %8, align 8
  %52 = getelementptr inbounds nuw %struct.ObjectAddresses, ptr %51, i32 0, i32 2
  %53 = load i32, ptr %52, align 8
  %54 = add i32 %53, 1
  store i32 %54, ptr %52, align 8
  call void @llvm.lifetime.end.p0(i64 8, ptr %9) #8
  ret void
}