; Function Attrs: nounwind uwtable
define internal fastcc void @add_object_address(i32 noundef range(i32 1247, 3603) %0, i32 noundef %1, i32 noundef %2, ptr noundef captures(none) %3) unnamed_addr #0 {
  %5 = getelementptr inbounds nuw i8, ptr %3, i64 16
  %6 = load i32, ptr %5, align 8
  %7 = getelementptr inbounds nuw i8, ptr %3, i64 20
  %8 = load i32, ptr %7, align 4
  %.not = icmp slt i32 %6, %8
  %.pre = load ptr, ptr %3, align 8
  br i1 %.not, label %14, label %9

9:                                                ; preds = %4
  %10 = shl i32 %8, 1
  store i32 %10, ptr %7, align 4
  %11 = sext i32 %10 to i64
  %12 = mul nsw i64 %11, 12
  %13 = tail call ptr @repalloc(ptr noundef %.pre, i64 noundef %12) #9
  store ptr %13, ptr %3, align 8
  %.pre14 = load i32, ptr %5, align 8
  br label %14

14:                                               ; preds = %9, %4
  %15 = phi i32 [ %.pre14, %9 ], [ %6, %4 ]
  %16 = phi ptr [ %13, %9 ], [ %.pre, %4 ]
  %17 = sext i32 %15 to i64
  %18 = getelementptr inbounds %struct.ObjectAddress, ptr %16, i64 %17
  store i32 %0, ptr %18, align 4
  %19 = getelementptr inbounds nuw i8, ptr %18, i64 4
  store i32 %1, ptr %19, align 4
  %20 = getelementptr inbounds nuw i8, ptr %18, i64 8
  store i32 %2, ptr %20, align 4
  %21 = load i32, ptr %5, align 8
  %22 = add i32 %21, 1
  store i32 %22, ptr %5, align 8
  ret void
}